target datalayout = "e-m:e-p270:32:32-p271:32:32-p272:64:64-i64:64-i128:128-f80:128-n8:16:32:64-S128"
target triple = "x86_64-pc-linux-gnu"

%"class.Imath_3_2::Vec2.0" = type { float, float }

; Function Attrs: inlinehint mustprogress nounwind uwtable
define linkonce_odr dso_local void @_ZN9Imath_3_24Vec2IfEC2ERKS1_(ptr noundef nonnull align 4 dereferenceable(8) %0, ptr noundef nonnull align 4 dereferenceable(8) %1) unnamed_addr #6 comdat align 2 {
  %3 = alloca ptr, align 8
  %4 = alloca ptr, align 8
  store ptr %0, ptr %3, align 8, !tbaa !62
  store ptr %1, ptr %4, align 8, !tbaa !62
  %5 = load ptr, ptr %3, align 8
  %6 = getelementptr inbounds nuw %"class.Imath_3_2::Vec2.0", ptr %5, i32 0, i32 0
  %7 = load ptr, ptr %4, align 8, !tbaa !62
  %8 = getelementptr inbounds nuw %"class.Imath_3_2::Vec2.0", ptr %7, i32 0, i32 0
  %9 = load float, ptr %8, align 4, !tbaa !64
  store float %9, ptr %6, align 4, !tbaa !64
  %10 = getelementptr inbounds nuw %"class.Imath_3_2::Vec2.0", ptr %5, i32 0, i32 1
  %11 = load ptr, ptr %4, align 8, !tbaa !62
  %12 = getelementptr inbounds nuw %"class.Imath_3_2::Vec2.0", ptr %11, i32 0, i32 1
  %13 = load float, ptr %12, align 4, !tbaa !66
  store float %13, ptr %10, align 4, !tbaa !66
  ret void
}

; Function Attrs: inlinehint mustprogress nounwind uwtable
define linkonce_odr dso_local void @_ZN9Imath_3_24Vec2IfEC2Ev(ptr noundef nonnull align 4 dereferenceable(8) %0) unnamed_addr #6 comdat align 2 {
  %2 = alloca ptr, align 8
  store ptr %0, ptr %2, align 8, !tbaa !62
  ret void
}

; Function Attrs: mustprogress uwtable
define internal void @_ZN12_GLOBAL__N_112dirToPosCubeERKN9Imath_3_23BoxINS0_4Vec2IiEEEERKNS0_4Vec3IfEE(ptr dead_on_unwind noalias writable sret(%"class.Imath_3_2::Vec2.0") align 4 %0, ptr noundef nonnull align 4 dereferenceable(16) %1, ptr noundef nonnull align 4 dereferenceable(12) %2) #4 {
  %4 = alloca ptr, align 8
  %5 = alloca ptr, align 8
  %6 = alloca ptr, align 8
  %7 = alloca i32, align 4
  %8 = alloca %"class.Imath_3_2::Vec2.0", align 4
  %9 = alloca %"class.Imath_3_2::Vec2.0", align 4
  store ptr %0, ptr %4, align 8
  store ptr %1, ptr %5, align 8, !tbaa !23
  store ptr %2, ptr %6, align 8, !tbaa !51
  call void @llvm.lifetime.start.p0(i64 4, ptr %7) #3
  call void @llvm.lifetime.start.p0(i64 8, ptr %8) #3
  call void @_ZN9Imath_3_24Vec2IfEC2Ev(ptr noundef nonnull align 4 dereferenceable(8) %8) #3
  %10 = load ptr, ptr %6, align 8, !tbaa !51
  %11 = load ptr, ptr %5, align 8, !tbaa !23
  call void @_ZN7Imf_3_47CubeMap20faceAndPixelPositionERKN9Imath_3_24Vec3IfEERKNS1_3BoxINS1_4Vec2IiEEEERNS_11CubeMapFaceERNS7_IfEE(ptr noundef nonnull align 4 dereferenceable(12) %10, ptr noundef nonnull align 4 dereferenceable(16) %11, ptr noundef nonnull align 4 dereferenceable(4) %7, ptr noundef nonnull align 4 dereferenceable(8) %8)
  %12 = load i32, ptr %7, align 4, !tbaa !58
  %13 = load ptr, ptr %5, align 8, !tbaa !23
  call void @_ZN9Imath_3_24Vec2IfEC2ERKS1_(ptr noundef nonnull align 4 dereferenceable(8) %9, ptr noundef nonnull align 4 dereferenceable(8) %8) #3
  call void @_ZN7Imf_3_47CubeMap13pixelPositionENS_11CubeMapFaceERKN9Imath_3_23BoxINS2_4Vec2IiEEEENS4_IfEE(ptr dead_on_unwind writable sret(%"class.Imath_3_2::Vec2.0") align 4 %0, i32 noundef %12, ptr noundef nonnull align 4 dereferenceable(16) %13, ptr noundef %9)
  call void @llvm.lifetime.end.p0(i64 8, ptr %8) #3
  call void @llvm.lifetime.end.p0(i64 4, ptr %7) #3
  ret void
}