; Function Attrs: mustprogress uwtable
define internal void @_ZN12_GLOBAL__N_112dirToPosCubeERKN9Imath_3_23BoxINS0_4Vec2IiEEEERKNS0_4Vec3IfEE(ptr dead_on_unwind noalias writable sret(%"class.Imath_3_2::Vec2.0") align 4 %0, ptr noundef nonnull align 4 dereferenceable(16) %1, ptr noundef nonnull align 4 dereferenceable(12) %2) unnamed_addr #3 {
  %4 = alloca i32, align 4
  %5 = alloca %"class.Imath_3_2::Vec2.0", align 4
  %6 = alloca %"class.Imath_3_2::Vec2.0", align 4
  call void @llvm.lifetime.start.p0(i64 4, ptr nonnull %4) #19
  call void @llvm.lifetime.start.p0(i64 8, ptr nonnull %5) #19
  call void @_ZN7Imf_3_47CubeMap20faceAndPixelPositionERKN9Imath_3_24Vec3IfEERKNS1_3BoxINS1_4Vec2IiEEEERNS_11CubeMapFaceERNS7_IfEE(ptr noundef nonnull align 4 dereferenceable(12) %2, ptr noundef nonnull align 4 dereferenceable(16) %1, ptr noundef nonnull align 4 dereferenceable(4) %4, ptr noundef nonnull align 4 dereferenceable(8) %5)
  %7 = load i32, ptr %4, align 4, !tbaa !70
  %8 = load float, ptr %5, align 4, !tbaa !72
  store float %8, ptr %6, align 4, !tbaa !72
  %9 = getelementptr inbounds nuw i8, ptr %6, i64 4
  %10 = getelementptr inbounds nuw i8, ptr %5, i64 4
  %11 = load float, ptr %10, align 4, !tbaa !74
  store float %11, ptr %9, align 4, !tbaa !74
  call void @_ZN7Imf_3_47CubeMap13pixelPositionENS_11CubeMapFaceERKN9Imath_3_23BoxINS2_4Vec2IiEEEENS4_IfEE(ptr dead_on_unwind writable sret(%"class.Imath_3_2::Vec2.0") align 4 %0, i32 noundef %7, ptr noundef nonnull align 4 dereferenceable(16) %1, ptr noundef nonnull %6)
  call void @llvm.lifetime.end.p0(i64 8, ptr nonnull %5) #19
  call void @llvm.lifetime.end.p0(i64 4, ptr nonnull %4) #19
  ret void
}